target datalayout = "e-m:e-p270:32:32-p271:32:32-p272:64:64-i64:64-i128:128-f80:128-n8:16:32:64-S128"
target triple = "x86_64-pc-linux-gnu"

%struct._xmlNode = type { ptr, i32, ptr, ptr, ptr, ptr, ptr, ptr, ptr, ptr, ptr, ptr, ptr, ptr, i16, i16 }
%struct._zval_struct = type { %union._zend_value, %union.anon, %union.anon.2 }
%union._zend_value = type { i64 }
%union.anon = type { i32 }
%union.anon.2 = type { i32 }
%struct._dom_object = type { ptr, ptr, ptr, %struct._zend_object }
%struct._zend_object = type { %struct._zend_refcounted_h, i32, ptr, ptr, ptr, [1 x %struct._zval_struct] }
%struct._zend_refcounted_h = type { i32, %union.anon.3 }
%union.anon.3 = type { i32 }
%struct._php_libxml_ref_obj = type { ptr, ptr, %struct.php_libxml_cache_tag, i32, i8 }
%struct.php_libxml_cache_tag = type { i64 }

@xmlFree = external global ptr, align 8

; Function Attrs: nounwind uwtable
define internal void @dom_fragment_assign_parent_node(ptr noundef %0, ptr noundef %1) #0 {
  %3 = alloca ptr, align 8
  %4 = alloca ptr, align 8
  %5 = alloca ptr, align 8
  store ptr %0, ptr %3, align 8
  store ptr %1, ptr %4, align 8
  %6 = load ptr, ptr %4, align 8
  %7 = getelementptr inbounds %struct._xmlNode, ptr %6, i32 0, i32 3
  %8 = load ptr, ptr %7, align 8
  store ptr %8, ptr %5, align 8
  br label %9

9:                                                ; preds = %22, %2
  %10 = load ptr, ptr %5, align 8
  %11 = icmp ne ptr %10, null
  br i1 %11, label %12, label %26

12:                                               ; preds = %9
  %13 = load ptr, ptr %3, align 8
  %14 = load ptr, ptr %5, align 8
  %15 = getelementptr inbounds %struct._xmlNode, ptr %14, i32 0, i32 5
  store ptr %13, ptr %15, align 8
  %16 = load ptr, ptr %5, align 8
  %17 = load ptr, ptr %4, align 8
  %18 = getelementptr inbounds %struct._xmlNode, ptr %17, i32 0, i32 4
  %19 = load ptr, ptr %18, align 8
  %20 = icmp eq ptr %16, %19
  br i1 %20, label %21, label %22

21:                                               ; preds = %12
  br label %26

22:                                               ; preds = %12
  %23 = load ptr, ptr %5, align 8
  %24 = getelementptr inbounds %struct._xmlNode, ptr %23, i32 0, i32 6
  %25 = load ptr, ptr %24, align 8
  store ptr %25, ptr %5, align 8
  br label %9

26:                                               ; preds = %21, %9
  %27 = load ptr, ptr %4, align 8
  %28 = getelementptr inbounds %struct._xmlNode, ptr %27, i32 0, i32 3
  store ptr null, ptr %28, align 8
  %29 = load ptr, ptr %4, align 8
  %30 = getelementptr inbounds %struct._xmlNode, ptr %29, i32 0, i32 4
  store ptr null, ptr %30, align 8
  ret void
}

; Function Attrs: nounwind uwtable
define internal void @dom_pre_insert(ptr noundef %0, ptr noundef %1, ptr noundef %2, ptr noundef %3) #0 {
  %5 = alloca ptr, align 8
  %6 = alloca ptr, align 8
  %7 = alloca ptr, align 8
  %8 = alloca ptr, align 8
  store ptr %0, ptr %5, align 8
  store ptr %1, ptr %6, align 8
  store ptr %2, ptr %7, align 8
  store ptr %3, ptr %8, align 8
  %9 = load ptr, ptr %5, align 8
  %10 = icmp ne ptr %9, null
  br i1 %10, label %37, label %11

11:                                               ; preds = %4
  %12 = load ptr, ptr %6, align 8
  %13 = getelementptr inbounds %struct._xmlNode, ptr %12, i32 0, i32 3
  %14 = load ptr, ptr %13, align 8
  %15 = icmp ne ptr %14, null
  br i1 %15, label %16, label %27

16:                                               ; preds = %11
  %17 = load ptr, ptr %6, align 8
  %18 = getelementptr inbounds %struct._xmlNode, ptr %17, i32 0, i32 4
  %19 = load ptr, ptr %18, align 8
  %20 = load ptr, ptr %7, align 8
  %21 = getelementptr inbounds %struct._xmlNode, ptr %20, i32 0, i32 7
  store ptr %19, ptr %21, align 8
  %22 = load ptr, ptr %7, align 8
  %23 = load ptr, ptr %6, align 8
  %24 = getelementptr inbounds %struct._xmlNode, ptr %23, i32 0, i32 4
  %25 = load ptr, ptr %24, align 8
  %26 = getelementptr inbounds %struct._xmlNode, ptr %25, i32 0, i32 6
  store ptr %22, ptr %26, align 8
  br label %31

27:                                               ; preds = %11
  %28 = load ptr, ptr %7, align 8
  %29 = load ptr, ptr %6, align 8
  %30 = getelementptr inbounds %struct._xmlNode, ptr %29, i32 0, i32 3
  store ptr %28, ptr %30, align 8
  br label %31

31:                                               ; preds = %27, %16
  %32 = load ptr, ptr %8, align 8
  %33 = getelementptr inbounds %struct._xmlNode, ptr %32, i32 0, i32 4
  %34 = load ptr, ptr %33, align 8
  %35 = load ptr, ptr %6, align 8
  %36 = getelementptr inbounds %struct._xmlNode, ptr %35, i32 0, i32 4
  store ptr %34, ptr %36, align 8
  br label %74

37:                                               ; preds = %4
  %38 = load ptr, ptr %5, align 8
  %39 = load ptr, ptr %8, align 8
  %40 = getelementptr inbounds %struct._xmlNode, ptr %39, i32 0, i32 4
  %41 = load ptr, ptr %40, align 8
  %42 = getelementptr inbounds %struct._xmlNode, ptr %41, i32 0, i32 6
  store ptr %38, ptr %42, align 8
  %43 = load ptr, ptr %5, align 8
  %44 = getelementptr inbounds %struct._xmlNode, ptr %43, i32 0, i32 7
  %45 = load ptr, ptr %44, align 8
  %46 = icmp ne ptr %45, null
  br i1 %46, label %47, label %58

47:                                               ; preds = %37
  %48 = load ptr, ptr %7, align 8
  %49 = load ptr, ptr %5, align 8
  %50 = getelementptr inbounds %struct._xmlNode, ptr %49, i32 0, i32 7
  %51 = load ptr, ptr %50, align 8
  %52 = getelementptr inbounds %struct._xmlNode, ptr %51, i32 0, i32 6
  store ptr %48, ptr %52, align 8
  %53 = load ptr, ptr %5, align 8
  %54 = getelementptr inbounds %struct._xmlNode, ptr %53, i32 0, i32 7
  %55 = load ptr, ptr %54, align 8
  %56 = load ptr, ptr %7, align 8
  %57 = getelementptr inbounds %struct._xmlNode, ptr %56, i32 0, i32 7
  store ptr %55, ptr %57, align 8
  br label %58

58:                                               ; preds = %47, %37
  %59 = load ptr, ptr %8, align 8
  %60 = getelementptr inbounds %struct._xmlNode, ptr %59, i32 0, i32 4
  %61 = load ptr, ptr %60, align 8
  %62 = load ptr, ptr %5, align 8
  %63 = getelementptr inbounds %struct._xmlNode, ptr %62, i32 0, i32 7
  store ptr %61, ptr %63, align 8
  %64 = load ptr, ptr %6, align 8
  %65 = getelementptr inbounds %struct._xmlNode, ptr %64, i32 0, i32 3
  %66 = load ptr, ptr %65, align 8
  %67 = load ptr, ptr %5, align 8
  %68 = icmp eq ptr %66, %67
  br i1 %68, label %69, label %73

69:                                               ; preds = %58
  %70 = load ptr, ptr %7, align 8
  %71 = load ptr, ptr %6, align 8
  %72 = getelementptr inbounds %struct._xmlNode, ptr %71, i32 0, i32 3
  store ptr %70, ptr %72, align 8
  br label %73

73:                                               ; preds = %69, %58
  br label %74

74:                                               ; preds = %73, %31
  ret void
}

; Function Attrs: nounwind uwtable
define hidden void @dom_parent_node_prepend(ptr noundef %0, ptr noundef %1, i32 noundef %2) #0 {
  %4 = alloca ptr, align 8
  %5 = alloca ptr, align 8
  %6 = alloca ptr, align 8
  %7 = alloca i32, align 4
  %8 = alloca ptr, align 8
  %9 = alloca ptr, align 8
  %10 = alloca ptr, align 8
  %11 = alloca ptr, align 8
  store ptr %0, ptr %5, align 8
  store ptr %1, ptr %6, align 8
  store i32 %2, ptr %7, align 4
  %12 = load ptr, ptr %5, align 8
  %13 = call ptr @dom_object_get_node(ptr noundef %12)
  store ptr %13, ptr %8, align 8
  %14 = load ptr, ptr %8, align 8
  %15 = getelementptr inbounds %struct._xmlNode, ptr %14, i32 0, i32 3
  %16 = load ptr, ptr %15, align 8
  %17 = icmp eq ptr %16, null
  br i1 %17, label %18, label %22

18:                                               ; preds = %3
  %19 = load ptr, ptr %5, align 8
  %20 = load ptr, ptr %6, align 8
  %21 = load i32, ptr %7, align 4
  call void @dom_parent_node_append(ptr noundef %19, ptr noundef %20, i32 noundef %21)
  br label %86

22:                                               ; preds = %3
  %23 = load ptr, ptr %5, align 8
  %24 = getelementptr inbounds %struct._dom_object, ptr %23, i32 0, i32 1
  %25 = load ptr, ptr %24, align 8
  %26 = load ptr, ptr %8, align 8
  %27 = load ptr, ptr %6, align 8
  %28 = load i32, ptr %7, align 4
  %29 = call i32 @dom_sanity_check_node_list_for_insertion(ptr noundef %25, ptr noundef %26, ptr noundef %27, i32 noundef %28)
  %30 = icmp ne i32 %29, 0
  %31 = xor i1 %30, true
  %32 = xor i1 %31, true
  %33 = zext i1 %32 to i32
  %34 = sext i32 %33 to i64
  %35 = icmp ne i64 %34, 0
  br i1 %35, label %36, label %37

36:                                               ; preds = %22
  br label %86

37:                                               ; preds = %22
  %38 = load ptr, ptr %5, align 8
  %39 = getelementptr inbounds %struct._dom_object, ptr %38, i32 0, i32 1
  %40 = load ptr, ptr %39, align 8
  store ptr %40, ptr %4, align 8
  %41 = load ptr, ptr %4, align 8
  %42 = icmp ne ptr %41, null
  br i1 %42, label %44, label %43

43:                                               ; preds = %37
  br label %49

44:                                               ; preds = %37
  %45 = load ptr, ptr %4, align 8
  %46 = getelementptr inbounds %struct._php_libxml_ref_obj, ptr %45, i32 0, i32 2
  %47 = load i64, ptr %46, align 8
  %48 = add i64 %47, 1
  store i64 %48, ptr %46, align 8
  br label %49

49:                                               ; preds = %44, %43
  %50 = load ptr, ptr %5, align 8
  %51 = getelementptr inbounds %struct._dom_object, ptr %50, i32 0, i32 1
  %52 = load ptr, ptr %51, align 8
  %53 = load ptr, ptr %8, align 8
  %54 = load ptr, ptr %6, align 8
  %55 = load i32, ptr %7, align 4
  %56 = call ptr @dom_zvals_to_fragment(ptr noundef %52, ptr noundef %53, ptr noundef %54, i32 noundef %55)
  store ptr %56, ptr %9, align 8
  %57 = load ptr, ptr %9, align 8
  %58 = icmp eq ptr %57, null
  br i1 %58, label %59, label %60

59:                                               ; preds = %49
  br label %86

60:                                               ; preds = %49
  %61 = load ptr, ptr %9, align 8
  %62 = getelementptr inbounds %struct._xmlNode, ptr %61, i32 0, i32 3
  %63 = load ptr, ptr %62, align 8
  store ptr %63, ptr %10, align 8
  %64 = load ptr, ptr %10, align 8
  %65 = icmp ne ptr %64, null
  br i1 %65, label %66, label %83

66:                                               ; preds = %60
  %67 = load ptr, ptr %9, align 8
  %68 = getelementptr inbounds %struct._xmlNode, ptr %67, i32 0, i32 4
  %69 = load ptr, ptr %68, align 8
  store ptr %69, ptr %11, align 8
  %70 = load ptr, ptr %8, align 8
  %71 = getelementptr inbounds %struct._xmlNode, ptr %70, i32 0, i32 3
  %72 = load ptr, ptr %71, align 8
  %73 = load ptr, ptr %8, align 8
  %74 = load ptr, ptr %10, align 8
  %75 = load ptr, ptr %9, align 8
  call void @dom_pre_insert(ptr noundef %72, ptr noundef %73, ptr noundef %74, ptr noundef %75)
  %76 = load ptr, ptr %8, align 8
  %77 = load ptr, ptr %9, align 8
  call void @dom_fragment_assign_parent_node(ptr noundef %76, ptr noundef %77)
  %78 = load ptr, ptr %8, align 8
  %79 = getelementptr inbounds %struct._xmlNode, ptr %78, i32 0, i32 8
  %80 = load ptr, ptr %79, align 8
  %81 = load ptr, ptr %10, align 8
  %82 = load ptr, ptr %11, align 8
  call void @dom_reconcile_ns_list(ptr noundef %80, ptr noundef %81, ptr noundef %82)
  br label %83

83:                                               ; preds = %66, %60
  %84 = load ptr, ptr @xmlFree, align 8
  %85 = load ptr, ptr %9, align 8
  call void %84(ptr noundef %85)
  br label %86

86:                                               ; preds = %83, %59, %36, %18
  ret void
}