; Function Attrs: nounwind uwtable
define hidden void @dom_parent_node_prepend(ptr noundef %0, ptr noundef %1, i32 noundef %2) local_unnamed_addr #0 {
  %4 = tail call ptr @dom_object_get_node(ptr noundef %0) #3
  %5 = getelementptr inbounds i8, ptr %4, i64 24
  %6 = load ptr, ptr %5, align 8
  %7 = icmp eq ptr %6, null
  br i1 %7, label %8, label %9

8:                                                ; preds = %3
  tail call void @dom_parent_node_append(ptr noundef %0, ptr noundef %1, i32 noundef %2)
  br label %55

9:                                                ; preds = %3
  %10 = getelementptr inbounds i8, ptr %0, i64 8
  %11 = load ptr, ptr %10, align 8
  %12 = tail call fastcc i32 @dom_sanity_check_node_list_for_insertion(ptr noundef %11, ptr noundef nonnull %4, ptr noundef %1, i32 noundef %2), !range !4
  %.not = icmp eq i32 %12, 0
  br i1 %.not, label %13, label %55

13:                                               ; preds = %9
  %14 = load ptr, ptr %10, align 8
  %.not31 = icmp eq ptr %14, null
  br i1 %.not31, label %19, label %15

15:                                               ; preds = %13
  %16 = getelementptr inbounds i8, ptr %14, i64 16
  %17 = load i64, ptr %16, align 8
  %18 = add i64 %17, 1
  store i64 %18, ptr %16, align 8
  %.pre = load ptr, ptr %10, align 8
  br label %19

19:                                               ; preds = %13, %15
  %20 = phi ptr [ null, %13 ], [ %.pre, %15 ]
  %21 = tail call ptr @dom_zvals_to_fragment(ptr noundef %20, ptr noundef nonnull %4, ptr noundef %1, i32 noundef %2)
  %22 = icmp eq ptr %21, null
  br i1 %22, label %55, label %23

23:                                               ; preds = %19
  %24 = getelementptr inbounds i8, ptr %21, i64 24
  %25 = load ptr, ptr %24, align 8
  %.not32 = icmp eq ptr %25, null
  br i1 %.not32, label %53, label %26

26:                                               ; preds = %23
  %27 = getelementptr inbounds i8, ptr %21, i64 32
  %28 = load ptr, ptr %27, align 8
  %29 = load ptr, ptr %5, align 8
  %.not.i = icmp eq ptr %29, null
  br i1 %.not.i, label %30, label %33

30:                                               ; preds = %26
  store ptr %25, ptr %5, align 8
  %31 = load ptr, ptr %27, align 8
  %32 = getelementptr inbounds i8, ptr %4, i64 32
  store ptr %31, ptr %32, align 8
  br label %dom_pre_insert.exit

33:                                               ; preds = %26
  %34 = getelementptr inbounds i8, ptr %28, i64 48
  store ptr %29, ptr %34, align 8
  %35 = getelementptr inbounds i8, ptr %29, i64 56
  %36 = load ptr, ptr %35, align 8
  %.not25.i = icmp eq ptr %36, null
  br i1 %.not25.i, label %41, label %37

37:                                               ; preds = %33
  %38 = getelementptr inbounds i8, ptr %36, i64 48
  store ptr %25, ptr %38, align 8
  %39 = load ptr, ptr %35, align 8
  %40 = getelementptr inbounds i8, ptr %25, i64 56
  store ptr %39, ptr %40, align 8
  br label %41

41:                                               ; preds = %37, %33
  %42 = load ptr, ptr %27, align 8
  store ptr %42, ptr %35, align 8
  %43 = load ptr, ptr %5, align 8
  %44 = icmp eq ptr %43, %29
  br i1 %44, label %45, label %dom_pre_insert.exit

45:                                               ; preds = %41
  store ptr %25, ptr %5, align 8
  br label %dom_pre_insert.exit

dom_pre_insert.exit:                              ; preds = %30, %41, %45
  %.09.i = load ptr, ptr %24, align 8
  %.not10.i = icmp eq ptr %.09.i, null
  br i1 %.not10.i, label %dom_fragment_assign_parent_node.exit, label %.lr.ph.i

46:                                               ; preds = %.lr.ph.i
  %47 = getelementptr inbounds i8, ptr %.011.i, i64 48
  %.0.i = load ptr, ptr %47, align 8
  %.not.i33 = icmp eq ptr %.0.i, null
  br i1 %.not.i33, label %dom_fragment_assign_parent_node.exit, label %.lr.ph.i

.lr.ph.i:                                         ; preds = %dom_pre_insert.exit, %46
  %.011.i = phi ptr [ %.0.i, %46 ], [ %.09.i, %dom_pre_insert.exit ]
  %48 = getelementptr inbounds i8, ptr %.011.i, i64 40
  store ptr %4, ptr %48, align 8
  %49 = load ptr, ptr %27, align 8
  %50 = icmp eq ptr %.011.i, %49
  br i1 %50, label %dom_fragment_assign_parent_node.exit, label %46

dom_fragment_assign_parent_node.exit:             ; preds = %46, %.lr.ph.i, %dom_pre_insert.exit
  tail call void @llvm.memset.p0.i64(ptr noundef nonnull align 8 dereferenceable(16) %24, i8 0, i64 16, i1 false)
  %51 = getelementptr inbounds i8, ptr %4, i64 64
  %52 = load ptr, ptr %51, align 8
  tail call void @dom_reconcile_ns_list(ptr noundef %52, ptr noundef nonnull %25, ptr noundef %28) #3
  br label %53

53:                                               ; preds = %dom_fragment_assign_parent_node.exit, %23
  %54 = load ptr, ptr @xmlFree, align 8
  tail call void %54(ptr noundef nonnull %21) #3
  br label %55

55:                                               ; preds = %19, %9, %53, %8
  ret void
}